; Function Attrs: mustprogress nounwind uwtable
define dso_local void @_ZN5clang7CodeGen13CGHLSLRuntime25setHLSLFunctionAttributesEPKNS_12FunctionDeclEPN4llvm8FunctionE(ptr nocapture noundef nonnull readnone align 8 dereferenceable(96) %0, ptr noundef nonnull %1, ptr noundef %2) local_unnamed_addr #0 align 2 {
  %4 = tail call noundef zeroext i1 @_ZNK5clang4Decl21isInExportDeclContextEv(ptr noundef nonnull align 8 dereferenceable(33) %1) #16
  br i1 %4, label %5, label %6

5:                                                ; preds = %3
  tail call void @_ZN4llvm8Function9addFnAttrENS_9StringRefES1_(ptr noundef nonnull align 8 dereferenceable(136) %2, ptr nonnull @.str.8, i64 11, ptr null, i64 0) #16
  br label %6

6:                                                ; preds = %5, %3
  ret void
}